; ModuleID = 'integer_overflow.6971c04079d825bb-cgu.0'
source_filename = "integer_overflow.6971c04079d825bb-cgu.0"
target datalayout = "e-m:e-p270:32:32-p271:32:32-p272:64:64-i64:64-i128:128-f80:128-n8:16:32:64-S128"
target triple = "x86_64-unknown-linux-gnu"

@vtable.0 = private unnamed_addr constant <{ [24 x i8], ptr, ptr, ptr }> <{ [24 x i8] c"\00\00\00\00\00\00\00\00\08\00\00\00\00\00\00\00\08\00\00\00\00\00\00\00", ptr @"_ZN4core3ops8function6FnOnce40call_once$u7b$$u7b$vtable.shim$u7d$$u7d$17h952f0860971289d1E", ptr @"_ZN3std2rt10lang_start28_$u7b$$u7b$closure$u7d$$u7d$17h76e40e3127519c87E", ptr @"_ZN3std2rt10lang_start28_$u7b$$u7b$closure$u7d$$u7d$17h76e40e3127519c87E" }>, align 8

; std::rt::lang_start
; Function Attrs: nonlazybind uwtable
define hidden noundef i64 @_ZN3std2rt10lang_start17h4583b47ebf039e67E(ptr noundef nonnull %main, i64 noundef %argc, ptr noundef %argv, i8 noundef %sigpipe) unnamed_addr #0 {
start:
  %_7 = alloca [8 x i8], align 8
  call void @llvm.lifetime.start.p0(i64 8, ptr nonnull %_7)
  store ptr %main, ptr %_7, align 8
; call std::rt::lang_start_internal
  %_0 = call noundef i64 @_ZN3std2rt19lang_start_internal17ha8ef919ae4984948E(ptr noundef nonnull align 1 %_7, ptr noalias noundef nonnull readonly align 8 dereferenceable(48) @vtable.0, i64 noundef %argc, ptr noundef %argv, i8 noundef %sigpipe)
  call void @llvm.lifetime.end.p0(i64 8, ptr nonnull %_7)
  ret i64 %_0
}

; std::rt::lang_start::{{closure}}
; Function Attrs: inlinehint nonlazybind uwtable
define internal noundef range(i32 0, 256) i32 @"_ZN3std2rt10lang_start28_$u7b$$u7b$closure$u7d$$u7d$17h76e40e3127519c87E"(ptr noalias nocapture noundef readonly align 8 dereferenceable(8) %_1) unnamed_addr #1 {
start:
  %_4 = load ptr, ptr %_1, align 8, !nonnull !4, !noundef !4
; call std::sys::backtrace::__rust_begin_short_backtrace
  %_3 = tail call fastcc noundef i8 @_ZN3std3sys9backtrace28__rust_begin_short_backtrace17hc42481d569ee8c62E(ptr noundef nonnull %_4)
  %_0 = zext i8 %_3 to i32
  ret i32 %_0
}

; std::sys::backtrace::__rust_begin_short_backtrace
; Function Attrs: noinline nonlazybind uwtable
define internal fastcc noundef i8 @_ZN3std3sys9backtrace28__rust_begin_short_backtrace17hc42481d569ee8c62E(ptr nocapture noundef nonnull readonly %f) unnamed_addr #2 {
start:
  %_0.i = tail call noundef i8 %f()
  tail call void asm sideeffect "", "~{memory}"() #7, !srcloc !5
  ret i8 %_0.i
}

; core::ops::function::FnOnce::call_once{{vtable.shim}}
; Function Attrs: inlinehint nonlazybind uwtable
define internal noundef range(i32 0, 256) i32 @"_ZN4core3ops8function6FnOnce40call_once$u7b$$u7b$vtable.shim$u7d$$u7d$17h952f0860971289d1E"(ptr nocapture noundef readonly %_1) unnamed_addr #1 personality ptr @rust_eh_personality {
start:
  %0 = load ptr, ptr %_1, align 8, !nonnull !4, !noundef !4
; call std::sys::backtrace::__rust_begin_short_backtrace
  %_3.i.i = tail call fastcc noundef i8 @_ZN3std3sys9backtrace28__rust_begin_short_backtrace17hc42481d569ee8c62E(ptr noundef nonnull readonly %0), !noalias !6
  %_0.i.i = zext i8 %_3.i.i to i32
  ret i32 %_0.i.i
}

; integer_overflow::main
; Function Attrs: mustprogress nofree norecurse nosync nounwind nonlazybind willreturn memory(none) uwtable
define internal noundef i8 @_ZN16integer_overflow4main17h42b60cb601c8fe23E() unnamed_addr #3 {
start:
  ret i8 69
}

; std::rt::lang_start_internal
; Function Attrs: nonlazybind uwtable
declare noundef i64 @_ZN3std2rt19lang_start_internal17ha8ef919ae4984948E(ptr noundef nonnull align 1, ptr noalias noundef readonly align 8 dereferenceable(48), i64 noundef, ptr noundef, i8 noundef) unnamed_addr #0

; Function Attrs: nounwind nonlazybind uwtable
declare noundef range(i32 0, 10) i32 @rust_eh_personality(i32 noundef, i32 noundef, i64 noundef, ptr noundef, ptr noundef) unnamed_addr #4

; Function Attrs: nonlazybind
define noundef i32 @main(i32 %0, ptr %1) unnamed_addr #5 {
top:
  %_7.i = alloca [8 x i8], align 8
  %2 = sext i32 %0 to i64
  call void @llvm.lifetime.start.p0(i64 8, ptr nonnull %_7.i)
  store ptr @_ZN16integer_overflow4main17h42b60cb601c8fe23E, ptr %_7.i, align 8
; call std::rt::lang_start_internal
  %_0.i = call noundef i64 @_ZN3std2rt19lang_start_internal17ha8ef919ae4984948E(ptr noundef nonnull align 1 %_7.i, ptr noalias noundef nonnull readonly align 8 dereferenceable(48) @vtable.0, i64 noundef %2, ptr noundef %1, i8 noundef 0)
  call void @llvm.lifetime.end.p0(i64 8, ptr nonnull %_7.i)
  %3 = trunc i64 %_0.i to i32
  ret i32 %3
}

; Function Attrs: mustprogress nocallback nofree nosync nounwind willreturn memory(argmem: readwrite)
declare void @llvm.lifetime.start.p0(i64 immarg, ptr nocapture) #6

; Function Attrs: mustprogress nocallback nofree nosync nounwind willreturn memory(argmem: readwrite)
declare void @llvm.lifetime.end.p0(i64 immarg, ptr nocapture) #6

attributes #0 = { nonlazybind uwtable "probe-stack"="inline-asm" "target-cpu"="x86-64" }
attributes #1 = { inlinehint nonlazybind uwtable "probe-stack"="inline-asm" "target-cpu"="x86-64" }
attributes #2 = { noinline nonlazybind uwtable "probe-stack"="inline-asm" "target-cpu"="x86-64" }
attributes #3 = { mustprogress nofree norecurse nosync nounwind nonlazybind willreturn memory(none) uwtable "probe-stack"="inline-asm" "target-cpu"="x86-64" }
attributes #4 = { nounwind nonlazybind uwtable "probe-stack"="inline-asm" "target-cpu"="x86-64" }
attributes #5 = { nonlazybind "probe-stack"="inline-asm" "target-cpu"="x86-64" }
attributes #6 = { mustprogress nocallback nofree nosync nounwind willreturn memory(argmem: readwrite) }
attributes #7 = { nounwind }

!llvm.module.flags = !{!0, !1, !2}
!llvm.ident = !{!3}

!0 = !{i32 8, !"PIC Level", i32 2}
!1 = !{i32 7, !"PIE Level", i32 2}
!2 = !{i32 2, !"RtLibUseGOT", i32 1}
!3 = !{!"rustc version 1.88.0 (6b00bc388 2025-06-23)"}
!4 = !{}
!5 = !{i64 7000916953194281}
!6 = !{!7}
!7 = distinct !{!7, !8, !"_ZN3std2rt10lang_start28_$u7b$$u7b$closure$u7d$$u7d$17h76e40e3127519c87E: %_1"}
!8 = distinct !{!8, !"_ZN3std2rt10lang_start28_$u7b$$u7b$closure$u7d$$u7d$17h76e40e3127519c87E"}
